target datalayout = "e-m:e-p270:32:32-p271:32:32-p272:64:64-i64:64-i128:128-f80:128-n8:16:32:64-S128"
target triple = "x86_64-pc-linux-gnu"

%union.pthread_mutex_t = type { %struct.__pthread_mutex_s }
%struct.__pthread_mutex_s = type { i32, i32, i32, i32, i32, i16, i16, %struct.__pthread_internal_list }
%struct.__pthread_internal_list = type { ptr, ptr }
%union.pthread_attr_t = type { i64, [48 x i8] }

@.str.1 = private unnamed_addr constant [29 x i8] c"%s: pthread_mutex_lock(): %m\00", align 1
@plugin_inited = internal global i32 0, align 4
@.str.3 = private unnamed_addr constant [31 x i8] c"%s: pthread_mutex_unlock(): %m\00", align 1
@watch_tasks_thread_id = internal global i64 0, align 8
@.str.10 = private unnamed_addr constant [48 x i8] c"jobacct_gather_startpoll: poll already started!\00", align 1
@jobacct_shutdown_mutex = internal global %union.pthread_mutex_t zeroinitializer, align 8
@__func__.jobacct_gather_startpoll = private unnamed_addr constant [25 x i8] c"jobacct_gather_startpoll\00", align 1
@jobacct_shutdown = internal global i8 1, align 1
@freq = internal global i32 0, align 4
@task_list = internal global ptr null, align 8
@.str.11 = private unnamed_addr constant [40 x i8] c"jobacct_gather dynamic logging disabled\00", align 1
@.str.12 = private unnamed_addr constant [22 x i8] c"pthread_attr_init: %m\00", align 1
@.str.13 = private unnamed_addr constant [26 x i8] c"pthread_attr_setscope: %m\00", align 1
@.str.14 = private unnamed_addr constant [30 x i8] c"pthread_attr_setstacksize: %m\00", align 1
@.str.15 = private unnamed_addr constant [28 x i8] c"%s: pthread_create error %m\00", align 1
@.str.16 = private unnamed_addr constant [55 x i8] c"pthread_attr_destroy failed, possible memory leak!: %m\00", align 1
@.str.17 = private unnamed_addr constant [39 x i8] c"jobacct_gather dynamic logging enabled\00", align 1
@__func__._jobacct_shutdown_test = private unnamed_addr constant [23 x i8] c"_jobacct_shutdown_test\00", align 1

; Function Attrs: nounwind uwtable
define internal zeroext i1 @_jobacct_shutdown_test() #0 {
  %1 = alloca i8, align 1
  %2 = alloca i32, align 4
  %3 = alloca i32, align 4
  call void @llvm.lifetime.start.p0(i64 1, ptr %1) #8
  br label %4

4:                                                ; preds = %0
  call void @llvm.lifetime.start.p0(i64 4, ptr %2) #8
  %5 = call i32 @pthread_mutex_lock(ptr noundef @jobacct_shutdown_mutex) #8
  store i32 %5, ptr %2, align 4
  %6 = load i32, ptr %2, align 4
  %7 = icmp ne i32 %6, 0
  br i1 %7, label %8, label %11

8:                                                ; preds = %4
  %9 = load i32, ptr %2, align 4
  %10 = call ptr @__errno_location() #9
  store i32 %9, ptr %10, align 4
  call void (ptr, ...) @fatal_abort(ptr noundef @.str.1, ptr noundef @__func__._jobacct_shutdown_test) #10
  unreachable

11:                                               ; preds = %4
  call void @llvm.lifetime.end.p0(i64 4, ptr %2) #8
  br label %12

12:                                               ; preds = %11
  br label %13

13:                                               ; preds = %12
  %14 = load i8, ptr @jobacct_shutdown, align 1, !range !8, !noundef !9
  %15 = trunc i8 %14 to i1
  %16 = zext i1 %15 to i8
  store i8 %16, ptr %1, align 1
  br label %17

17:                                               ; preds = %13
  call void @llvm.lifetime.start.p0(i64 4, ptr %3) #8
  %18 = call i32 @pthread_mutex_unlock(ptr noundef @jobacct_shutdown_mutex) #8
  store i32 %18, ptr %3, align 4
  %19 = load i32, ptr %3, align 4
  %20 = icmp ne i32 %19, 0
  br i1 %20, label %21, label %24

21:                                               ; preds = %17
  %22 = load i32, ptr %3, align 4
  %23 = call ptr @__errno_location() #9
  store i32 %22, ptr %23, align 4
  call void (ptr, ...) @fatal_abort(ptr noundef @.str.3, ptr noundef @__func__._jobacct_shutdown_test) #10
  unreachable

24:                                               ; preds = %17
  call void @llvm.lifetime.end.p0(i64 4, ptr %3) #8
  br label %25

25:                                               ; preds = %24
  br label %26

26:                                               ; preds = %25
  %27 = load i8, ptr %1, align 1, !range !8, !noundef !9
  %28 = trunc i8 %27 to i1
  call void @llvm.lifetime.end.p0(i64 1, ptr %1) #8
  ret i1 %28
}

; Function Attrs: nounwind uwtable
define dso_local i32 @jobacct_gather_startpoll(i16 noundef zeroext %0) #0 {
  %2 = alloca i32, align 4
  %3 = alloca i16, align 2
  %4 = alloca i32, align 4
  %5 = alloca i32, align 4
  %6 = alloca i32, align 4
  %7 = alloca i32, align 4
  %8 = alloca %union.pthread_attr_t, align 8
  %9 = alloca i32, align 4
  %10 = alloca i32, align 4
  %11 = alloca i32, align 4
  store i16 %0, ptr %3, align 2
  call void @llvm.lifetime.start.p0(i64 4, ptr %4) #8
  store i32 0, ptr %4, align 4
  %12 = load i32, ptr @plugin_inited, align 4
  %13 = icmp eq i32 %12, 1
  br i1 %13, label %14, label %15

14:                                               ; preds = %1
  store i32 0, ptr %2, align 4
  store i32 1, ptr %5, align 4
  br label %118

15:                                               ; preds = %1
  %16 = call zeroext i1 @_jobacct_shutdown_test()
  br i1 %16, label %20, label %17

17:                                               ; preds = %15
  %18 = call i32 (ptr, ...) @error(ptr noundef @.str.10)
  %19 = load i32, ptr %4, align 4
  store i32 %19, ptr %2, align 4
  store i32 1, ptr %5, align 4
  br label %118

20:                                               ; preds = %15
  br label %21

21:                                               ; preds = %20
  call void @llvm.lifetime.start.p0(i64 4, ptr %6) #8
  %22 = call i32 @pthread_mutex_lock(ptr noundef @jobacct_shutdown_mutex) #8
  store i32 %22, ptr %6, align 4
  %23 = load i32, ptr %6, align 4
  %24 = icmp ne i32 %23, 0
  br i1 %24, label %25, label %28

25:                                               ; preds = %21
  %26 = load i32, ptr %6, align 4
  %27 = call ptr @__errno_location() #9
  store i32 %26, ptr %27, align 4
  call void (ptr, ...) @fatal_abort(ptr noundef @.str.1, ptr noundef @__func__.jobacct_gather_startpoll) #10
  unreachable

28:                                               ; preds = %21
  call void @llvm.lifetime.end.p0(i64 4, ptr %6) #8
  br label %29

29:                                               ; preds = %28
  br label %30

30:                                               ; preds = %29
  store i8 0, ptr @jobacct_shutdown, align 1
  br label %31

31:                                               ; preds = %30
  call void @llvm.lifetime.start.p0(i64 4, ptr %7) #8
  %32 = call i32 @pthread_mutex_unlock(ptr noundef @jobacct_shutdown_mutex) #8
  store i32 %32, ptr %7, align 4
  %33 = load i32, ptr %7, align 4
  %34 = icmp ne i32 %33, 0
  br i1 %34, label %35, label %38

35:                                               ; preds = %31
  %36 = load i32, ptr %7, align 4
  %37 = call ptr @__errno_location() #9
  store i32 %36, ptr %37, align 4
  call void (ptr, ...) @fatal_abort(ptr noundef @.str.3, ptr noundef @__func__.jobacct_gather_startpoll) #10
  unreachable

38:                                               ; preds = %31
  call void @llvm.lifetime.end.p0(i64 4, ptr %7) #8
  br label %39

39:                                               ; preds = %38
  br label %40

40:                                               ; preds = %39
  %41 = load i16, ptr %3, align 2
  %42 = zext i16 %41 to i32
  store i32 %42, ptr @freq, align 4
  %43 = call ptr @list_create(ptr noundef @jobacctinfo_destroy)
  store ptr %43, ptr @task_list, align 8
  %44 = load i16, ptr %3, align 2
  %45 = zext i16 %44 to i32
  %46 = icmp eq i32 %45, 0
  br i1 %46, label %47, label %59

47:                                               ; preds = %40
  br label %48

48:                                               ; preds = %47
  br label %49

49:                                               ; preds = %48
  %50 = call i32 @get_log_level()
  %51 = icmp sge i32 %50, 6
  br i1 %51, label %52, label %53

52:                                               ; preds = %49
  call void (i32, ptr, ...) @log_var(i32 noundef 6, ptr noundef @.str.11)
  br label %53

53:                                               ; preds = %52, %49
  br label %54

54:                                               ; preds = %53
  br label %55

55:                                               ; preds = %54
  br label %56

56:                                               ; preds = %55
  br label %57

57:                                               ; preds = %56
  %58 = load i32, ptr %4, align 4
  store i32 %58, ptr %2, align 4
  store i32 1, ptr %5, align 4
  br label %118

59:                                               ; preds = %40
  br label %60

60:                                               ; preds = %59
  call void @llvm.lifetime.start.p0(i64 56, ptr %8) #8
  call void @llvm.lifetime.start.p0(i64 4, ptr %9) #8
  br label %61

61:                                               ; preds = %60
  call void @llvm.lifetime.start.p0(i64 4, ptr %10) #8
  %62 = call i32 @pthread_attr_init(ptr noundef %8) #8
  store i32 %62, ptr %10, align 4
  %63 = load i32, ptr %10, align 4
  %64 = icmp ne i32 %63, 0
  br i1 %64, label %65, label %68

65:                                               ; preds = %61
  %66 = load i32, ptr %10, align 4
  %67 = call ptr @__errno_location() #9
  store i32 %66, ptr %67, align 4
  call void (ptr, ...) @fatal(ptr noundef @.str.12) #10
  unreachable

68:                                               ; preds = %61
  %69 = call i32 @pthread_attr_setscope(ptr noundef %8, i32 noundef 0) #8
  store i32 %69, ptr %10, align 4
  %70 = load i32, ptr %10, align 4
  %71 = icmp ne i32 %70, 0
  br i1 %71, label %72, label %76

72:                                               ; preds = %68
  %73 = load i32, ptr %10, align 4
  %74 = call ptr @__errno_location() #9
  store i32 %73, ptr %74, align 4
  %75 = call i32 (ptr, ...) @error(ptr noundef @.str.13)
  br label %76

76:                                               ; preds = %72, %68
  %77 = call i32 @pthread_attr_setstacksize(ptr noundef %8, i64 noundef 1048576) #8
  store i32 %77, ptr %10, align 4
  %78 = load i32, ptr %10, align 4
  %79 = icmp ne i32 %78, 0
  br i1 %79, label %80, label %84

80:                                               ; preds = %76
  %81 = load i32, ptr %10, align 4
  %82 = call ptr @__errno_location() #9
  store i32 %81, ptr %82, align 4
  %83 = call i32 (ptr, ...) @error(ptr noundef @.str.14)
  br label %84

84:                                               ; preds = %80, %76
  call void @llvm.lifetime.end.p0(i64 4, ptr %10) #8
  br label %85

85:                                               ; preds = %84
  br label %86

86:                                               ; preds = %85
  %87 = call i32 @pthread_create(ptr noundef @watch_tasks_thread_id, ptr noundef %8, ptr noundef @_watch_tasks, ptr noundef null) #8
  store i32 %87, ptr %9, align 4
  %88 = load i32, ptr %9, align 4
  %89 = icmp ne i32 %88, 0
  br i1 %89, label %90, label %93

90:                                               ; preds = %86
  %91 = load i32, ptr %9, align 4
  %92 = call ptr @__errno_location() #9
  store i32 %91, ptr %92, align 4
  call void (ptr, ...) @fatal(ptr noundef @.str.15, ptr noundef @__func__.jobacct_gather_startpoll) #10
  unreachable

93:                                               ; preds = %86
  br label %94

94:                                               ; preds = %93
  call void @llvm.lifetime.start.p0(i64 4, ptr %11) #8
  %95 = call i32 @pthread_attr_destroy(ptr noundef %8) #8
  store i32 %95, ptr %11, align 4
  %96 = load i32, ptr %11, align 4
  %97 = icmp ne i32 %96, 0
  br i1 %97, label %98, label %102

98:                                               ; preds = %94
  %99 = load i32, ptr %11, align 4
  %100 = call ptr @__errno_location() #9
  store i32 %99, ptr %100, align 4
  %101 = call i32 (ptr, ...) @error(ptr noundef @.str.16)
  br label %102

102:                                              ; preds = %98, %94
  call void @llvm.lifetime.end.p0(i64 4, ptr %11) #8
  br label %103

103:                                              ; preds = %102
  br label %104

104:                                              ; preds = %103
  call void @llvm.lifetime.end.p0(i64 4, ptr %9) #8
  call void @llvm.lifetime.end.p0(i64 56, ptr %8) #8
  br label %105

105:                                              ; preds = %104
  br label %106

106:                                              ; preds = %105
  br label %107

107:                                              ; preds = %106
  br label %108

108:                                              ; preds = %107
  %109 = call i32 @get_log_level()
  %110 = icmp sge i32 %109, 7
  br i1 %110, label %111, label %112

111:                                              ; preds = %108
  call void (i32, ptr, ...) @log_var(i32 noundef 7, ptr noundef @.str.17)
  br label %112

112:                                              ; preds = %111, %108
  br label %113

113:                                              ; preds = %112
  br label %114

114:                                              ; preds = %113
  br label %115

115:                                              ; preds = %114
  br label %116

116:                                              ; preds = %115
  %117 = load i32, ptr %4, align 4
  store i32 %117, ptr %2, align 4
  store i32 1, ptr %5, align 4
  br label %118

118:                                              ; preds = %116, %57, %17, %14
  call void @llvm.lifetime.end.p0(i64 4, ptr %4) #8
  %119 = load i32, ptr %2, align 4
  ret i32 %119
}