; Function Attrs: nounwind uwtable
define dso_local noundef i32 @jobacct_gather_startpoll(i16 noundef zeroext %0) local_unnamed_addr #0 {
  %2 = alloca %union.pthread_attr_t, align 8
  %3 = load i32, ptr @plugin_inited, align 4
  %4 = icmp eq i32 %3, 1
  br i1 %4, label %57, label %5

5:                                                ; preds = %1
  %6 = tail call i32 @pthread_mutex_lock(ptr noundef nonnull @jobacct_shutdown_mutex) #10
  %.not.i = icmp eq i32 %6, 0
  br i1 %.not.i, label %9, label %7

7:                                                ; preds = %5
  %8 = tail call ptr @__errno_location() #11
  store i32 %6, ptr %8, align 4
  tail call void (ptr, ...) @fatal_abort(ptr noundef nonnull @.str.1, ptr noundef nonnull @__func__._jobacct_shutdown_test) #12
  unreachable

9:                                                ; preds = %5
  %.b.i = load i1, ptr @jobacct_shutdown, align 1
  %10 = tail call i32 @pthread_mutex_unlock(ptr noundef nonnull @jobacct_shutdown_mutex) #10
  %.not6.i = icmp eq i32 %10, 0
  br i1 %.not6.i, label %_jobacct_shutdown_test.exit, label %11

11:                                               ; preds = %9
  %12 = tail call ptr @__errno_location() #11
  store i32 %10, ptr %12, align 4
  tail call void (ptr, ...) @fatal_abort(ptr noundef nonnull @.str.3, ptr noundef nonnull @__func__._jobacct_shutdown_test) #12
  unreachable

_jobacct_shutdown_test.exit:                      ; preds = %9
  br i1 %.b.i, label %13, label %15

13:                                               ; preds = %_jobacct_shutdown_test.exit
  %14 = tail call i32 (ptr, ...) @error(ptr noundef nonnull @.str.10) #10
  br label %57

15:                                               ; preds = %_jobacct_shutdown_test.exit
  %16 = tail call i32 @pthread_mutex_lock(ptr noundef nonnull @jobacct_shutdown_mutex) #10
  %.not = icmp eq i32 %16, 0
  br i1 %.not, label %19, label %17

17:                                               ; preds = %15
  %18 = tail call ptr @__errno_location() #11
  store i32 %16, ptr %18, align 4
  tail call void (ptr, ...) @fatal_abort(ptr noundef nonnull @.str.1, ptr noundef nonnull @__func__.jobacct_gather_startpoll) #12
  unreachable

19:                                               ; preds = %15
  store i1 true, ptr @jobacct_shutdown, align 1
  %20 = tail call i32 @pthread_mutex_unlock(ptr noundef nonnull @jobacct_shutdown_mutex) #10
  %.not26 = icmp eq i32 %20, 0
  br i1 %.not26, label %23, label %21

21:                                               ; preds = %19
  %22 = tail call ptr @__errno_location() #11
  store i32 %20, ptr %22, align 4
  tail call void (ptr, ...) @fatal_abort(ptr noundef nonnull @.str.3, ptr noundef nonnull @__func__.jobacct_gather_startpoll) #12
  unreachable

23:                                               ; preds = %19
  %24 = tail call ptr @list_create(ptr noundef nonnull @jobacctinfo_destroy) #10
  store ptr %24, ptr @task_list, align 8
  %25 = icmp eq i16 %0, 0
  br i1 %25, label %26, label %30

26:                                               ; preds = %23
  %27 = tail call i32 @get_log_level() #10
  %28 = icmp sgt i32 %27, 5
  br i1 %28, label %29, label %57

29:                                               ; preds = %26
  tail call void (i32, ptr, ...) @log_var(i32 noundef 6, ptr noundef nonnull @.str.11) #10
  br label %57

30:                                               ; preds = %23
  call void @llvm.lifetime.start.p0(i64 56, ptr nonnull %2) #10
  %31 = call i32 @pthread_attr_init(ptr noundef nonnull %2) #10
  %.not27 = icmp eq i32 %31, 0
  br i1 %.not27, label %34, label %32

32:                                               ; preds = %30
  %33 = tail call ptr @__errno_location() #11
  store i32 %31, ptr %33, align 4
  call void (ptr, ...) @fatal(ptr noundef nonnull @.str.12) #12
  unreachable

34:                                               ; preds = %30
  %35 = call i32 @pthread_attr_setscope(ptr noundef nonnull %2, i32 noundef 0) #10
  %.not28 = icmp eq i32 %35, 0
  br i1 %.not28, label %39, label %36

36:                                               ; preds = %34
  %37 = tail call ptr @__errno_location() #11
  store i32 %35, ptr %37, align 4
  %38 = call i32 (ptr, ...) @error(ptr noundef nonnull @.str.13) #10
  br label %39

39:                                               ; preds = %36, %34
  %40 = call i32 @pthread_attr_setstacksize(ptr noundef nonnull %2, i64 noundef 1048576) #10
  %.not29 = icmp eq i32 %40, 0
  br i1 %.not29, label %44, label %41

41:                                               ; preds = %39
  %42 = tail call ptr @__errno_location() #11
  store i32 %40, ptr %42, align 4
  %43 = call i32 (ptr, ...) @error(ptr noundef nonnull @.str.14) #10
  br label %44

44:                                               ; preds = %41, %39
  %45 = call i32 @pthread_create(ptr noundef nonnull @watch_tasks_thread_id, ptr noundef nonnull %2, ptr noundef nonnull @_watch_tasks, ptr noundef null) #10
  %.not30 = icmp eq i32 %45, 0
  br i1 %.not30, label %48, label %46

46:                                               ; preds = %44
  %47 = tail call ptr @__errno_location() #11
  store i32 %45, ptr %47, align 4
  call void (ptr, ...) @fatal(ptr noundef nonnull @.str.15, ptr noundef nonnull @__func__.jobacct_gather_startpoll) #12
  unreachable

48:                                               ; preds = %44
  %49 = call i32 @pthread_attr_destroy(ptr noundef nonnull %2) #10
  %.not31 = icmp eq i32 %49, 0
  br i1 %.not31, label %53, label %50

50:                                               ; preds = %48
  %51 = tail call ptr @__errno_location() #11
  store i32 %49, ptr %51, align 4
  %52 = call i32 (ptr, ...) @error(ptr noundef nonnull @.str.16) #10
  br label %53

53:                                               ; preds = %50, %48
  call void @llvm.lifetime.end.p0(i64 56, ptr nonnull %2) #10
  %54 = call i32 @get_log_level() #10
  %55 = icmp sgt i32 %54, 6
  br i1 %55, label %56, label %57

56:                                               ; preds = %53
  call void (i32, ptr, ...) @log_var(i32 noundef 7, ptr noundef nonnull @.str.17) #10
  br label %57

57:                                               ; preds = %53, %56, %26, %29, %1, %13
  ret i32 0
}